target datalayout = "e-m:e-p270:32:32-p271:32:32-p272:64:64-i64:64-i128:128-f80:128-n8:16:32:64-S128"
target triple = "x86_64-pc-linux-gnu"

%struct.HEVCContext = type { ptr, ptr, ptr, i32, [2 x %struct.HEVCLayerContext], i32, i32, i32, i8, ptr, %struct.HEVCParamSets, %struct.HEVCSEI, ptr, [7 x %struct.RefPicList], ptr, ptr, %struct.SliceHeader, i32, i32, ptr, ptr, i32, i32, i32, i32, i32, i32, i32, %struct.HEVCPredContext, %struct.HEVCDSPContext, %struct.VideoDSPContext, %struct.BswapDSPContext, %struct.H274FilmGrainDatabase, ptr, i32, %struct.HEVCCABACState, ptr, i32, i32, ptr, %struct.H2645Packet, i32, i32, i32, i32, ptr, i32, ptr, i32, ptr, i32, i32, i32, i32, i64, ptr, %struct.DOVIContext }
%struct.HEVCLayerContext = type { [32 x %struct.HEVCFrame], ptr, ptr, i32, i32, ptr, ptr, ptr, ptr, ptr, ptr, ptr, ptr, ptr, ptr, ptr, ptr, [3 x ptr], [3 x ptr], ptr, ptr }
%struct.HEVCFrame = type { %union.anon, ptr, i32, ptr, ptr, ptr, i32, i32, ptr, ptr, i32, ptr, i32, i8 }
%union.anon = type { %struct.ProgressFrame }
%struct.ProgressFrame = type { ptr, ptr }
%struct.HEVCParamSets = type { [16 x ptr], [16 x ptr], [64 x ptr] }
%struct.HEVCSEI = type { %struct.H2645SEI, %struct.HEVCSEIPictureHash, %struct.HEVCSEIPictureTiming, i32, %struct.HEVCSEITimeCode, %struct.HEVCSEITDRDI, %struct.HEVCSEIRecoveryPoint }
%struct.H2645SEI = type { %struct.H2645SEIA53Caption, %struct.H2645SEIAFD, %struct.HEVCSEIDynamicHDRPlus, %struct.HEVCSEIDynamicHDRVivid, %struct.HEVCSEILCEVC, %struct.H2645SEIUnregistered, %struct.H2645SEIFramePacking, %struct.H2645SEIDisplayOrientation, %struct.H2645SEIAlternativeTransfer, %struct.H2645SEIAmbientViewingEnvironment, %struct.H2645SEIMasteringDisplay, %struct.H2645SEIContentLight, %struct.AVFilmGrainAFGS1Params, ptr }
%struct.H2645SEIA53Caption = type { ptr }
%struct.H2645SEIAFD = type { i32, i8 }
%struct.HEVCSEIDynamicHDRPlus = type { ptr }
%struct.HEVCSEIDynamicHDRVivid = type { ptr }
%struct.HEVCSEILCEVC = type { ptr }
%struct.H2645SEIUnregistered = type { ptr, i32, i32 }
%struct.H2645SEIFramePacking = type { i32, i32, i32, i32, i32, i32, i32, i32 }
%struct.H2645SEIDisplayOrientation = type { i32, i32, i32, i32 }
%struct.H2645SEIAlternativeTransfer = type { i32, i32 }
%struct.H2645SEIAmbientViewingEnvironment = type { i32, i32, i16, i16 }
%struct.H2645SEIMasteringDisplay = type { i32, [3 x [2 x i16]], [2 x i16], i32, i32 }
%struct.H2645SEIContentLight = type { i32, i16, i16 }
%struct.AVFilmGrainAFGS1Params = type { i32, [8 x ptr] }
%struct.HEVCSEIPictureHash = type { [3 x [16 x i8]], i8 }
%struct.HEVCSEIPictureTiming = type { i32 }
%struct.HEVCSEITimeCode = type { i32, i8, [3 x i8], [3 x i8], [3 x i8], [3 x i8], [3 x i8], [3 x i8], [3 x i16], [3 x i8], [3 x i8], [3 x i8], [3 x i8], [3 x i8], [3 x i8], [3 x i8], [3 x i32] }
%struct.HEVCSEITDRDI = type { i8, i8, i8, i8, [32 x i16], [32 x i16], [32 x i8], [32 x i8], [32 x i8], [32 x i8], [32 x i8], [32 x i16], i8 }
%struct.HEVCSEIRecoveryPoint = type { i16, i8, i8, i8 }
%struct.RefPicList = type { [16 x ptr], [16 x i32], [16 x i32], i32 }
%struct.SliceHeader = type { i32, i32, i32, i32, i32, i32, i8, i8, i8, i8, i8, i32, i32, %struct.ShortTermRPS, ptr, i32, %struct.LongTermRPS, [2 x [32 x i32]], [2 x i8], i8, i8, [2 x i32], [3 x i8], i8, i8, i8, i8, i8, i32, i32, i32, i32, i32, i32, i32, i8, i32, i32, i8, i8, ptr, ptr, ptr, i32, i8, i8, i16, [16 x i16], [16 x [2 x i16]], [16 x [2 x i16]], [16 x i16], [16 x i16], [16 x [2 x i16]], [16 x i16], [16 x [2 x i16]], i32, i32 }
%struct.ShortTermRPS = type { [32 x i32], i32, i8, i8, i8, i8, i16, i8 }
%struct.LongTermRPS = type { [32 x i32], [32 x i8], [32 x i8], i8 }
%struct.HEVCPredContext = type { [4 x ptr], [4 x ptr], ptr, [4 x ptr] }
%struct.HEVCDSPContext = type { ptr, [4 x ptr], ptr, ptr, ptr, [4 x ptr], [4 x ptr], [5 x ptr], [5 x ptr], [2 x ptr], [10 x [2 x [2 x ptr]]], [10 x [2 x [2 x ptr]]], [10 x [2 x [2 x ptr]]], [10 x [2 x [2 x ptr]]], [10 x [2 x [2 x ptr]]], [10 x [2 x [2 x ptr]]], [10 x [2 x [2 x ptr]]], [10 x [2 x [2 x ptr]]], [10 x [2 x [2 x ptr]]], [10 x [2 x [2 x ptr]]], ptr, ptr, ptr, ptr, ptr, ptr, ptr, ptr }
%struct.VideoDSPContext = type { ptr, ptr }
%struct.BswapDSPContext = type { ptr, ptr }
%struct.H274FilmGrainDatabase = type { [13 x [13 x [64 x [64 x i8]]]], [13 x i16], [64 x [64 x i16]] }
%struct.HEVCCABACState = type { [199 x i8], [4 x i8] }
%struct.H2645Packet = type { ptr, %struct.H2645RBSP, i32, i32, i32 }
%struct.H2645RBSP = type { ptr, ptr, i32, i32 }
%struct.DOVIContext = type { ptr, i32, %struct.AVDOVIDecoderConfigurationRecord, %struct.AVDOVIRpuDataHeader, ptr, ptr, ptr, ptr, [16 x ptr], ptr, i32 }
%struct.AVDOVIDecoderConfigurationRecord = type { i8, i8, i8, i8, i8, i8, i8, i8, i8 }
%struct.AVDOVIRpuDataHeader = type { i8, i16, i8, i8, i8, i8, i8, i8, i8, i8, i8, i8, i8, i8, i8, i8, i8 }
%struct.HEVCVPS = type { i32, i8, i32, i32, %struct.PTL, i32, [7 x i32], [7 x i32], [7 x i32], i32, i32, i8, i32, i32, i8, i32, i32, ptr, i32, i16, [63 x i8], [2 x i8], i8, i8, i8, i8, %struct.anon.0, [2 x i16], i8, [2 x i64], [2 x i8], i8, %struct.RepFormat, ptr, i32 }
%struct.PTL = type { %struct.PTLCommon, [7 x %struct.PTLCommon], [7 x i8], [7 x i8] }
%struct.PTLCommon = type { i8, i8, i8, [32 x i8], i8, i8, i8, i8, i8, i8, i8, i8, i8, i8, i8, i8, i8, i8, i8, i8 }
%struct.anon.0 = type { i32, i32, i32 }
%struct.RepFormat = type { i16, i16, i8, i8, i8, i8, i16, i16, i16, i16 }
%struct.H2645NAL = type { ptr, i32, i32, i32, ptr, %struct.GetBitContext, i32, i32, i32, i32, i32, i32, ptr }
%struct.GetBitContext = type { ptr, ptr, i32, i32, i32 }

; Function Attrs: inlinehint nounwind uwtable
define internal i32 @get_bits1(ptr noundef %0) #6 {
  %2 = alloca ptr, align 8
  %3 = alloca i32, align 4
  %4 = alloca i8, align 1
  store ptr %0, ptr %2, align 8, !tbaa !351
  call void @llvm.lifetime.start.p0(i64 4, ptr %3) #12
  %5 = load ptr, ptr %2, align 8, !tbaa !351
  %6 = getelementptr inbounds nuw %struct.GetBitContext, ptr %5, i32 0, i32 2
  %7 = load i32, ptr %6, align 8, !tbaa !476
  store i32 %7, ptr %3, align 4, !tbaa !70
  call void @llvm.lifetime.start.p0(i64 1, ptr %4) #12
  %8 = load ptr, ptr %2, align 8, !tbaa !351
  %9 = getelementptr inbounds nuw %struct.GetBitContext, ptr %8, i32 0, i32 0
  %10 = load ptr, ptr %9, align 8, !tbaa !434
  %11 = load i32, ptr %3, align 4, !tbaa !70
  %12 = lshr i32 %11, 3
  %13 = zext i32 %12 to i64
  %14 = getelementptr inbounds nuw i8, ptr %10, i64 %13
  %15 = load i8, ptr %14, align 1, !tbaa !78
  store i8 %15, ptr %4, align 1, !tbaa !78
  %16 = load i32, ptr %3, align 4, !tbaa !70
  %17 = and i32 %16, 7
  %18 = load i8, ptr %4, align 1, !tbaa !78
  %19 = zext i8 %18 to i32
  %20 = shl i32 %19, %17
  %21 = trunc i32 %20 to i8
  store i8 %21, ptr %4, align 1, !tbaa !78
  %22 = load i8, ptr %4, align 1, !tbaa !78
  %23 = zext i8 %22 to i32
  %24 = ashr i32 %23, 7
  %25 = trunc i32 %24 to i8
  store i8 %25, ptr %4, align 1, !tbaa !78
  %26 = load ptr, ptr %2, align 8, !tbaa !351
  %27 = getelementptr inbounds nuw %struct.GetBitContext, ptr %26, i32 0, i32 2
  %28 = load i32, ptr %27, align 8, !tbaa !476
  %29 = load ptr, ptr %2, align 8, !tbaa !351
  %30 = getelementptr inbounds nuw %struct.GetBitContext, ptr %29, i32 0, i32 4
  %31 = load i32, ptr %30, align 8, !tbaa !477
  %32 = icmp slt i32 %28, %31
  br i1 %32, label %33, label %36

33:                                               ; preds = %1
  %34 = load i32, ptr %3, align 4, !tbaa !70
  %35 = add i32 %34, 1
  store i32 %35, ptr %3, align 4, !tbaa !70
  br label %36

36:                                               ; preds = %33, %1
  %37 = load i32, ptr %3, align 4, !tbaa !70
  %38 = load ptr, ptr %2, align 8, !tbaa !351
  %39 = getelementptr inbounds nuw %struct.GetBitContext, ptr %38, i32 0, i32 2
  store i32 %37, ptr %39, align 8, !tbaa !476
  %40 = load i8, ptr %4, align 1, !tbaa !78
  %41 = zext i8 %40 to i32
  call void @llvm.lifetime.end.p0(i64 1, ptr %4) #12
  call void @llvm.lifetime.end.p0(i64 4, ptr %3) #12
  ret i32 %41
}

; Function Attrs: nounwind uwtable
define internal i32 @find_finish_setup_nal(ptr noundef %0) #0 {
  %2 = alloca ptr, align 8
  %3 = alloca i32, align 4
  %4 = alloca i32, align 4
  %5 = alloca i32, align 4
  %6 = alloca ptr, align 8
  %7 = alloca i32, align 4
  %8 = alloca %struct.GetBitContext, align 8
  store ptr %0, ptr %2, align 8, !tbaa !4
  call void @llvm.lifetime.start.p0(i64 4, ptr %3) #12
  store i32 0, ptr %3, align 4, !tbaa !70
  call void @llvm.lifetime.start.p0(i64 4, ptr %4) #12
  %9 = load i32, ptr %3, align 4, !tbaa !70
  store i32 %9, ptr %4, align 4, !tbaa !70
  br label %10

10:                                               ; preds = %76, %1
  %11 = load i32, ptr %4, align 4, !tbaa !70
  %12 = load ptr, ptr %2, align 8, !tbaa !4
  %13 = getelementptr inbounds nuw %struct.HEVCContext, ptr %12, i32 0, i32 40
  %14 = getelementptr inbounds nuw %struct.H2645Packet, ptr %13, i32 0, i32 2
  %15 = load i32, ptr %14, align 8, !tbaa !316
  %16 = icmp slt i32 %11, %15
  br i1 %16, label %18, label %17

17:                                               ; preds = %10
  store i32 2, ptr %5, align 4
  call void @llvm.lifetime.end.p0(i64 4, ptr %4) #12
  br label %79

18:                                               ; preds = %10
  call void @llvm.lifetime.start.p0(i64 8, ptr %6) #12
  %19 = load ptr, ptr %2, align 8, !tbaa !4
  %20 = getelementptr inbounds nuw %struct.HEVCContext, ptr %19, i32 0, i32 40
  %21 = getelementptr inbounds nuw %struct.H2645Packet, ptr %20, i32 0, i32 0
  %22 = load ptr, ptr %21, align 8, !tbaa !317
  %23 = load i32, ptr %4, align 4, !tbaa !70
  %24 = sext i32 %23 to i64
  %25 = getelementptr inbounds %struct.H2645NAL, ptr %22, i64 %24
  store ptr %25, ptr %6, align 8, !tbaa !325
  call void @llvm.lifetime.start.p0(i64 4, ptr %7) #12
  %26 = load ptr, ptr %6, align 8, !tbaa !325
  %27 = getelementptr inbounds nuw %struct.H2645NAL, ptr %26, i32 0, i32 9
  %28 = load i32, ptr %27, align 4, !tbaa !323
  store i32 %28, ptr %7, align 4, !tbaa !70
  call void @llvm.lifetime.start.p0(i64 32, ptr %8) #12
  %29 = load ptr, ptr %6, align 8, !tbaa !325
  %30 = getelementptr inbounds nuw %struct.H2645NAL, ptr %29, i32 0, i32 5
  call void @llvm.memcpy.p0.p0.i64(ptr align 8 %8, ptr align 8 %30, i64 32, i1 false), !tbaa.struct !337
  %31 = load i32, ptr %7, align 4, !tbaa !70
  %32 = icmp sgt i32 %31, 62
  br i1 %32, label %60, label %33

33:                                               ; preds = %18
  %34 = load ptr, ptr %2, align 8, !tbaa !4
  %35 = getelementptr inbounds nuw %struct.HEVCContext, ptr %34, i32 0, i32 14
  %36 = load ptr, ptr %35, align 8, !tbaa !9
  %37 = getelementptr inbounds nuw %struct.HEVCVPS, ptr %36, i32 0, i32 20
  %38 = load i32, ptr %7, align 4, !tbaa !70
  %39 = sext i32 %38 to i64
  %40 = getelementptr inbounds [63 x i8], ptr %37, i64 0, i64 %39
  %41 = load i8, ptr %40, align 1, !tbaa !78
  %42 = sext i8 %41 to i32
  %43 = icmp slt i32 %42, 0
  br i1 %43, label %60, label %44

44:                                               ; preds = %33
  %45 = load ptr, ptr %2, align 8, !tbaa !4
  %46 = getelementptr inbounds nuw %struct.HEVCContext, ptr %45, i32 0, i32 6
  %47 = load i32, ptr %46, align 4, !tbaa !116
  %48 = load ptr, ptr %2, align 8, !tbaa !4
  %49 = getelementptr inbounds nuw %struct.HEVCContext, ptr %48, i32 0, i32 14
  %50 = load ptr, ptr %49, align 8, !tbaa !9
  %51 = getelementptr inbounds nuw %struct.HEVCVPS, ptr %50, i32 0, i32 20
  %52 = load i32, ptr %7, align 4, !tbaa !70
  %53 = sext i32 %52 to i64
  %54 = getelementptr inbounds [63 x i8], ptr %51, i64 0, i64 %53
  %55 = load i8, ptr %54, align 1, !tbaa !78
  %56 = sext i8 %55 to i32
  %57 = shl i32 1, %56
  %58 = and i32 %47, %57
  %59 = icmp ne i32 %58, 0
  br i1 %59, label %61, label %60

60:                                               ; preds = %44, %33, %18
  store i32 4, ptr %5, align 4
  br label %73

61:                                               ; preds = %44
  %62 = load ptr, ptr %6, align 8, !tbaa !325
  %63 = getelementptr inbounds nuw %struct.H2645NAL, ptr %62, i32 0, i32 6
  %64 = load i32, ptr %63, align 8, !tbaa !318
  switch i32 %64, label %72 [
    i32 1, label %65
    i32 0, label %65
    i32 2, label %65
    i32 3, label %65
    i32 4, label %65
    i32 5, label %65
    i32 16, label %65
    i32 17, label %65
    i32 18, label %65
    i32 19, label %65
    i32 20, label %65
    i32 21, label %65
    i32 6, label %65
    i32 7, label %65
    i32 8, label %65
    i32 9, label %65
    i32 32, label %70
    i32 33, label %70
    i32 34, label %70
  ]

65:                                               ; preds = %61, %61, %61, %61, %61, %61, %61, %61, %61, %61, %61, %61, %61, %61, %61, %61
  %66 = call i32 @get_bits1(ptr noundef %8)
  %67 = icmp ne i32 %66, 0
  br i1 %67, label %69, label %68

68:                                               ; preds = %65
  store i32 4, ptr %5, align 4
  br label %73

69:                                               ; preds = %65
  br label %70

70:                                               ; preds = %61, %61, %61, %69
  %71 = load i32, ptr %4, align 4, !tbaa !70
  store i32 %71, ptr %3, align 4, !tbaa !70
  br label %72

72:                                               ; preds = %61, %70
  store i32 0, ptr %5, align 4
  br label %73

73:                                               ; preds = %72, %68, %60
  call void @llvm.lifetime.end.p0(i64 32, ptr %8) #12
  call void @llvm.lifetime.end.p0(i64 4, ptr %7) #12
  call void @llvm.lifetime.end.p0(i64 8, ptr %6) #12
  %74 = load i32, ptr %5, align 4
  switch i32 %74, label %81 [
    i32 0, label %75
    i32 4, label %76
  ]

75:                                               ; preds = %73
  br label %76

76:                                               ; preds = %75, %73
  %77 = load i32, ptr %4, align 4, !tbaa !70
  %78 = add nsw i32 %77, 1
  store i32 %78, ptr %4, align 4, !tbaa !70
  br label %10, !llvm.loop !504

79:                                               ; preds = %17
  %80 = load i32, ptr %3, align 4, !tbaa !70
  store i32 1, ptr %5, align 4
  call void @llvm.lifetime.end.p0(i64 4, ptr %3) #12
  ret i32 %80

81:                                               ; preds = %73
  unreachable
}