; Function Attrs: nofree norecurse nosync nounwind memory(read, inaccessiblemem: none) uwtable
define internal fastcc i32 @find_finish_setup_nal(ptr noundef readonly captures(none) %0) unnamed_addr #8 {
  %2 = getelementptr inbounds nuw i8, ptr %0, i64 715984
  %3 = load i32, ptr %2, align 8, !tbaa !290
  %4 = icmp sgt i32 %3, 0
  br i1 %4, label %.lr.ph, label %._crit_edge

.lr.ph:                                           ; preds = %1
  %5 = getelementptr inbounds nuw i8, ptr %0, i64 715952
  %6 = load ptr, ptr %5, align 8, !tbaa !291
  %7 = getelementptr inbounds nuw i8, ptr %0, i64 10432
  %8 = getelementptr inbounds nuw i8, ptr %0, i64 7060
  %wide.trip.count = zext nneg i32 %3 to i64
  br label %9

._crit_edge:                                      ; preds = %41, %1
  %.0.lcssa = phi i32 [ 0, %1 ], [ %.1, %41 ]
  ret i32 %.0.lcssa

9:                                                ; preds = %.lr.ph, %41
  %indvars.iv = phi i64 [ 0, %.lr.ph ], [ %indvars.iv.next, %41 ]
  %.023 = phi i32 [ 0, %.lr.ph ], [ %.1, %41 ]
  %10 = getelementptr inbounds nuw %struct.H2645NAL, ptr %6, i64 %indvars.iv
  %11 = getelementptr inbounds nuw i8, ptr %10, i64 76
  %12 = load i32, ptr %11, align 4, !tbaa !297
  %13 = getelementptr inbounds nuw i8, ptr %10, i64 32
  %.sroa.0.0.copyload = load ptr, ptr %13, align 8, !tbaa !226
  %.sroa.420.0..sroa_idx = getelementptr inbounds nuw i8, ptr %10, i64 48
  %.sroa.420.0.copyload = load i32, ptr %.sroa.420.0..sroa_idx, align 8, !tbaa !137
  %14 = icmp sgt i32 %12, 62
  br i1 %14, label %41, label %15

15:                                               ; preds = %9
  %16 = load ptr, ptr %7, align 8, !tbaa !4
  %17 = getelementptr inbounds nuw i8, ptr %16, i64 574
  %18 = sext i32 %12 to i64
  %19 = getelementptr inbounds [63 x i8], ptr %17, i64 0, i64 %18
  %20 = load i8, ptr %19, align 1, !tbaa !74
  %21 = icmp slt i8 %20, 0
  br i1 %21, label %41, label %22

22:                                               ; preds = %15
  %23 = load i32, ptr %8, align 4, !tbaa !126
  %24 = zext nneg i8 %20 to i32
  %25 = shl nuw i32 1, %24
  %26 = and i32 %23, %25
  %.not = icmp eq i32 %26, 0
  br i1 %.not, label %41, label %27

27:                                               ; preds = %22
  %28 = getelementptr inbounds nuw i8, ptr %10, i64 64
  %29 = load i32, ptr %28, align 8, !tbaa !292
  switch i32 %29, label %41 [
    i32 1, label %30
    i32 0, label %30
    i32 2, label %30
    i32 3, label %30
    i32 4, label %30
    i32 5, label %30
    i32 16, label %30
    i32 17, label %30
    i32 18, label %30
    i32 19, label %30
    i32 20, label %30
    i32 21, label %30
    i32 6, label %30
    i32 7, label %30
    i32 8, label %30
    i32 9, label %30
    i32 32, label %39
    i32 33, label %39
    i32 34, label %39
  ]

30:                                               ; preds = %27, %27, %27, %27, %27, %27, %27, %27, %27, %27, %27, %27, %27, %27, %27, %27
  %31 = lshr i32 %.sroa.420.0.copyload, 3
  %32 = zext nneg i32 %31 to i64
  %33 = getelementptr inbounds nuw i8, ptr %.sroa.0.0.copyload, i64 %32
  %34 = load i8, ptr %33, align 1, !tbaa !74
  %35 = zext i8 %34 to i32
  %36 = and i32 %.sroa.420.0.copyload, 7
  %37 = lshr exact i32 128, %36
  %38 = and i32 %37, %35
  %.not19 = icmp eq i32 %38, 0
  br i1 %.not19, label %41, label %39

39:                                               ; preds = %30, %27, %27, %27
  %40 = trunc nuw nsw i64 %indvars.iv to i32
  br label %41

41:                                               ; preds = %27, %39, %30, %9, %15, %22
  %.1 = phi i32 [ %.023, %22 ], [ %.023, %15 ], [ %.023, %9 ], [ %.023, %30 ], [ %.023, %27 ], [ %40, %39 ]
  %indvars.iv.next = add nuw nsw i64 %indvars.iv, 1
  %exitcond.not = icmp eq i64 %indvars.iv.next, %wide.trip.count
  br i1 %exitcond.not, label %._crit_edge, label %9, !llvm.loop !487
}